target datalayout = "e-m:e-p270:32:32-p271:32:32-p272:64:64-i64:64-i128:128-f80:128-n8:16:32:64-S128"
target triple = "x86_64-pc-linux-gnu"

%struct.MvcCoverStruct = type { i32, i32, i32, %struct.MvcListStruct, ptr, i32, ptr, ptr, ptr }
%struct.MvcListStruct = type { ptr, ptr, i32 }
%struct.MvcCubeStruct = type { ptr, i32, i32, [1 x i32] }

; Function Attrs: nounwind uwtable
define void @Mvc_CoverDivideByLiteral(ptr noundef %0, ptr noundef %1, ptr noundef %2, ptr noundef %3) #0 {
  %5 = alloca ptr, align 8
  %6 = alloca ptr, align 8
  %7 = alloca ptr, align 8
  %8 = alloca ptr, align 8
  %9 = alloca ptr, align 8
  %10 = alloca ptr, align 8
  %11 = alloca ptr, align 8
  %12 = alloca ptr, align 8
  %13 = alloca i32, align 4
  %14 = alloca ptr, align 8
  %15 = alloca ptr, align 8
  store ptr %0, ptr %5, align 8
  store ptr %1, ptr %6, align 8
  store ptr %2, ptr %7, align 8
  store ptr %3, ptr %8, align 8
  %16 = load ptr, ptr %5, align 8
  %17 = getelementptr inbounds %struct.MvcCoverStruct, ptr %16, i32 0, i32 8
  %18 = load ptr, ptr %17, align 8
  %19 = load ptr, ptr %5, align 8
  %20 = getelementptr inbounds %struct.MvcCoverStruct, ptr %19, i32 0, i32 2
  %21 = load i32, ptr %20, align 8
  %22 = call ptr @Mvc_CoverAlloc(ptr noundef %18, i32 noundef %21)
  store ptr %22, ptr %9, align 8
  %23 = load ptr, ptr %5, align 8
  %24 = getelementptr inbounds %struct.MvcCoverStruct, ptr %23, i32 0, i32 8
  %25 = load ptr, ptr %24, align 8
  %26 = load ptr, ptr %5, align 8
  %27 = getelementptr inbounds %struct.MvcCoverStruct, ptr %26, i32 0, i32 2
  %28 = load i32, ptr %27, align 8
  %29 = call ptr @Mvc_CoverAlloc(ptr noundef %25, i32 noundef %28)
  store ptr %29, ptr %10, align 8
  %30 = load ptr, ptr %6, align 8
  %31 = call i32 @Mvc_CoverFirstCubeFirstLit(ptr noundef %30)
  store i32 %31, ptr %13, align 4
  %32 = load ptr, ptr %5, align 8
  %33 = getelementptr inbounds %struct.MvcCoverStruct, ptr %32, i32 0, i32 3
  %34 = getelementptr inbounds %struct.MvcListStruct, ptr %33, i32 0, i32 0
  %35 = load ptr, ptr %34, align 8
  store ptr %35, ptr %11, align 8
  br label %36

36:                                               ; preds = %122, %4
  %37 = load ptr, ptr %11, align 8
  %38 = icmp ne ptr %37, null
  br i1 %38, label %39, label %126

39:                                               ; preds = %36
  %40 = load ptr, ptr %5, align 8
  %41 = load ptr, ptr %11, align 8
  %42 = call ptr @Mvc_CubeDup(ptr noundef %40, ptr noundef %41)
  store ptr %42, ptr %12, align 8
  %43 = load ptr, ptr %12, align 8
  %44 = getelementptr inbounds %struct.MvcCubeStruct, ptr %43, i32 0, i32 3
  %45 = load i32, ptr %13, align 4
  %46 = ashr i32 %45, 5
  %47 = sext i32 %46 to i64
  %48 = getelementptr inbounds [1 x i32], ptr %44, i64 0, i64 %47
  %49 = load i32, ptr %48, align 4
  %50 = load i32, ptr %13, align 4
  %51 = and i32 %50, 31
  %52 = shl i32 1, %51
  %53 = and i32 %49, %52
  %54 = icmp ugt i32 %53, 0
  br i1 %54, label %55, label %94

55:                                               ; preds = %39
  %56 = load i32, ptr %13, align 4
  %57 = and i32 %56, 31
  %58 = shl i32 1, %57
  %59 = xor i32 %58, -1
  %60 = load ptr, ptr %12, align 8
  %61 = getelementptr inbounds %struct.MvcCubeStruct, ptr %60, i32 0, i32 3
  %62 = load i32, ptr %13, align 4
  %63 = ashr i32 %62, 5
  %64 = sext i32 %63 to i64
  %65 = getelementptr inbounds [1 x i32], ptr %61, i64 0, i64 %64
  %66 = load i32, ptr %65, align 4
  %67 = and i32 %66, %59
  store i32 %67, ptr %65, align 4
  %68 = load ptr, ptr %9, align 8
  %69 = getelementptr inbounds %struct.MvcCoverStruct, ptr %68, i32 0, i32 3
  store ptr %69, ptr %14, align 8
  %70 = load ptr, ptr %14, align 8
  %71 = getelementptr inbounds %struct.MvcListStruct, ptr %70, i32 0, i32 0
  %72 = load ptr, ptr %71, align 8
  %73 = icmp eq ptr %72, null
  br i1 %73, label %74, label %78

74:                                               ; preds = %55
  %75 = load ptr, ptr %12, align 8
  %76 = load ptr, ptr %14, align 8
  %77 = getelementptr inbounds %struct.MvcListStruct, ptr %76, i32 0, i32 0
  store ptr %75, ptr %77, align 8
  br label %84

78:                                               ; preds = %55
  %79 = load ptr, ptr %12, align 8
  %80 = load ptr, ptr %14, align 8
  %81 = getelementptr inbounds %struct.MvcListStruct, ptr %80, i32 0, i32 1
  %82 = load ptr, ptr %81, align 8
  %83 = getelementptr inbounds %struct.MvcCubeStruct, ptr %82, i32 0, i32 0
  store ptr %79, ptr %83, align 8
  br label %84

84:                                               ; preds = %78, %74
  %85 = load ptr, ptr %12, align 8
  %86 = load ptr, ptr %14, align 8
  %87 = getelementptr inbounds %struct.MvcListStruct, ptr %86, i32 0, i32 1
  store ptr %85, ptr %87, align 8
  %88 = load ptr, ptr %12, align 8
  %89 = getelementptr inbounds %struct.MvcCubeStruct, ptr %88, i32 0, i32 0
  store ptr null, ptr %89, align 8
  %90 = load ptr, ptr %14, align 8
  %91 = getelementptr inbounds %struct.MvcListStruct, ptr %90, i32 0, i32 2
  %92 = load i32, ptr %91, align 8
  %93 = add nsw i32 %92, 1
  store i32 %93, ptr %91, align 8
  br label %121

94:                                               ; preds = %39
  %95 = load ptr, ptr %10, align 8
  %96 = getelementptr inbounds %struct.MvcCoverStruct, ptr %95, i32 0, i32 3
  store ptr %96, ptr %15, align 8
  %97 = load ptr, ptr %15, align 8
  %98 = getelementptr inbounds %struct.MvcListStruct, ptr %97, i32 0, i32 0
  %99 = load ptr, ptr %98, align 8
  %100 = icmp eq ptr %99, null
  br i1 %100, label %101, label %105

101:                                              ; preds = %94
  %102 = load ptr, ptr %12, align 8
  %103 = load ptr, ptr %15, align 8
  %104 = getelementptr inbounds %struct.MvcListStruct, ptr %103, i32 0, i32 0
  store ptr %102, ptr %104, align 8
  br label %111

105:                                              ; preds = %94
  %106 = load ptr, ptr %12, align 8
  %107 = load ptr, ptr %15, align 8
  %108 = getelementptr inbounds %struct.MvcListStruct, ptr %107, i32 0, i32 1
  %109 = load ptr, ptr %108, align 8
  %110 = getelementptr inbounds %struct.MvcCubeStruct, ptr %109, i32 0, i32 0
  store ptr %106, ptr %110, align 8
  br label %111

111:                                              ; preds = %105, %101
  %112 = load ptr, ptr %12, align 8
  %113 = load ptr, ptr %15, align 8
  %114 = getelementptr inbounds %struct.MvcListStruct, ptr %113, i32 0, i32 1
  store ptr %112, ptr %114, align 8
  %115 = load ptr, ptr %12, align 8
  %116 = getelementptr inbounds %struct.MvcCubeStruct, ptr %115, i32 0, i32 0
  store ptr null, ptr %116, align 8
  %117 = load ptr, ptr %15, align 8
  %118 = getelementptr inbounds %struct.MvcListStruct, ptr %117, i32 0, i32 2
  %119 = load i32, ptr %118, align 8
  %120 = add nsw i32 %119, 1
  store i32 %120, ptr %118, align 8
  br label %121

121:                                              ; preds = %111, %84
  br label %122

122:                                              ; preds = %121
  %123 = load ptr, ptr %11, align 8
  %124 = getelementptr inbounds %struct.MvcCubeStruct, ptr %123, i32 0, i32 0
  %125 = load ptr, ptr %124, align 8
  store ptr %125, ptr %11, align 8
  br label %36, !llvm.loop !13

126:                                              ; preds = %36
  %127 = load ptr, ptr %10, align 8
  %128 = load ptr, ptr %8, align 8
  store ptr %127, ptr %128, align 8
  %129 = load ptr, ptr %9, align 8
  %130 = load ptr, ptr %7, align 8
  store ptr %129, ptr %130, align 8
  ret void
}