; Function Attrs: nounwind uwtable
define void @Mvc_CoverDivideByLiteral(ptr noundef %0, ptr noundef %1, ptr noundef writeonly captures(none) %2, ptr noundef writeonly captures(none) %3) local_unnamed_addr #0 {
  %5 = getelementptr inbounds nuw i8, ptr %0, i64 72
  %6 = load ptr, ptr %5, align 8
  %7 = getelementptr inbounds nuw i8, ptr %0, i64 8
  %8 = load i32, ptr %7, align 8
  %9 = tail call ptr @Mvc_CoverAlloc(ptr noundef %6, i32 noundef %8) #4
  %10 = load ptr, ptr %5, align 8
  %11 = load i32, ptr %7, align 8
  %12 = tail call ptr @Mvc_CoverAlloc(ptr noundef %10, i32 noundef %11) #4
  %13 = tail call i32 @Mvc_CoverFirstCubeFirstLit(ptr noundef %1) #4
  %14 = getelementptr inbounds nuw i8, ptr %0, i64 16
  %.040 = load ptr, ptr %14, align 8
  %.not41 = icmp eq ptr %.040, null
  br i1 %.not41, label %._crit_edge, label %.lr.ph

.lr.ph:                                           ; preds = %4
  %15 = ashr i32 %13, 5
  %16 = sext i32 %15 to i64
  %17 = and i32 %13, 31
  %18 = shl nuw i32 1, %17
  %19 = xor i32 %18, -1
  %20 = getelementptr inbounds nuw i8, ptr %9, i64 16
  %21 = getelementptr inbounds nuw i8, ptr %9, i64 24
  %22 = getelementptr inbounds nuw i8, ptr %9, i64 32
  %23 = getelementptr inbounds nuw i8, ptr %12, i64 16
  %24 = getelementptr inbounds nuw i8, ptr %12, i64 24
  %25 = getelementptr inbounds nuw i8, ptr %12, i64 32
  br label %26

26:                                               ; preds = %.lr.ph, %51
  %.042 = phi ptr [ %.040, %.lr.ph ], [ %.0, %51 ]
  %27 = tail call ptr @Mvc_CubeDup(ptr noundef %0, ptr noundef nonnull %.042) #4
  %28 = getelementptr inbounds nuw i8, ptr %27, i64 16
  %29 = getelementptr inbounds [1 x i32], ptr %28, i64 0, i64 %16
  %30 = load i32, ptr %29, align 4
  %31 = and i32 %30, %18
  %.not39 = icmp eq i32 %31, 0
  br i1 %.not39, label %42, label %32

32:                                               ; preds = %26
  %33 = and i32 %30, %19
  store i32 %33, ptr %29, align 4
  %34 = load ptr, ptr %20, align 8
  %35 = icmp eq ptr %34, null
  br i1 %35, label %36, label %37

36:                                               ; preds = %32
  store ptr %27, ptr %20, align 8
  br label %39

37:                                               ; preds = %32
  %38 = load ptr, ptr %21, align 8
  store ptr %27, ptr %38, align 8
  br label %39

39:                                               ; preds = %37, %36
  store ptr %27, ptr %21, align 8
  store ptr null, ptr %27, align 8
  %40 = load i32, ptr %22, align 8
  %41 = add nsw i32 %40, 1
  store i32 %41, ptr %22, align 8
  br label %51

42:                                               ; preds = %26
  %43 = load ptr, ptr %23, align 8
  %44 = icmp eq ptr %43, null
  br i1 %44, label %45, label %46

45:                                               ; preds = %42
  store ptr %27, ptr %23, align 8
  br label %48

46:                                               ; preds = %42
  %47 = load ptr, ptr %24, align 8
  store ptr %27, ptr %47, align 8
  br label %48

48:                                               ; preds = %46, %45
  store ptr %27, ptr %24, align 8
  store ptr null, ptr %27, align 8
  %49 = load i32, ptr %25, align 8
  %50 = add nsw i32 %49, 1
  store i32 %50, ptr %25, align 8
  br label %51

51:                                               ; preds = %39, %48
  %.0 = load ptr, ptr %.042, align 8
  %.not = icmp eq ptr %.0, null
  br i1 %.not, label %._crit_edge, label %26, !llvm.loop !13

._crit_edge:                                      ; preds = %51, %4
  store ptr %12, ptr %3, align 8
  store ptr %9, ptr %2, align 8
  ret void
}